target datalayout = "e-m:e-p270:32:32-p271:32:32-p272:64:64-i64:64-i128:128-f80:128-n8:16:32:64-S128"
target triple = "x86_64-pc-linux-gnu"

%struct.mbedtls_md_context_t = type { ptr, ptr, ptr }

@.str = private unnamed_addr constant [1 x i8] zeroinitializer, align 1

; Function Attrs: nounwind uwtable
define hidden i32 @mbedtls_hkdf_expand(ptr noundef %0, ptr noundef %1, i64 noundef %2, ptr noundef %3, i64 noundef %4, ptr noundef %5, i64 noundef %6) #0 {
  %8 = alloca i32, align 4
  %9 = alloca ptr, align 8
  %10 = alloca ptr, align 8
  %11 = alloca i64, align 8
  %12 = alloca ptr, align 8
  %13 = alloca i64, align 8
  %14 = alloca ptr, align 8
  %15 = alloca i64, align 8
  %16 = alloca i64, align 8
  %17 = alloca i64, align 8
  %18 = alloca i64, align 8
  %19 = alloca i64, align 8
  %20 = alloca i64, align 8
  %21 = alloca i32, align 4
  %22 = alloca %struct.mbedtls_md_context_t, align 8
  %23 = alloca [64 x i8], align 16
  %24 = alloca i32, align 4
  %25 = alloca i64, align 8
  %26 = alloca i8, align 1
  store ptr %0, ptr %9, align 8, !tbaa !3
  store ptr %1, ptr %10, align 8, !tbaa !8
  store i64 %2, ptr %11, align 8, !tbaa !10
  store ptr %3, ptr %12, align 8, !tbaa !8
  store i64 %4, ptr %13, align 8, !tbaa !10
  store ptr %5, ptr %14, align 8, !tbaa !8
  store i64 %6, ptr %15, align 8, !tbaa !10
  call void @llvm.lifetime.start.p0(i64 8, ptr %16) #5
  call void @llvm.lifetime.start.p0(i64 8, ptr %17) #5
  store i64 0, ptr %17, align 8, !tbaa !10
  call void @llvm.lifetime.start.p0(i64 8, ptr %18) #5
  call void @llvm.lifetime.start.p0(i64 8, ptr %19) #5
  store i64 0, ptr %19, align 8, !tbaa !10
  call void @llvm.lifetime.start.p0(i64 8, ptr %20) #5
  call void @llvm.lifetime.start.p0(i64 4, ptr %21) #5
  store i32 0, ptr %21, align 4, !tbaa !12
  call void @llvm.lifetime.start.p0(i64 24, ptr %22) #5
  call void @llvm.lifetime.start.p0(i64 64, ptr %23) #5
  %27 = load ptr, ptr %14, align 8, !tbaa !8
  %28 = icmp eq ptr %27, null
  br i1 %28, label %29, label %30

29:                                               ; preds = %7
  store i32 -24448, ptr %8, align 4
  store i32 1, ptr %24, align 4
  br label %138

30:                                               ; preds = %7
  %31 = load ptr, ptr %9, align 8, !tbaa !3
  %32 = call zeroext i8 @mbedtls_md_get_size(ptr noundef %31)
  %33 = zext i8 %32 to i64
  store i64 %33, ptr %16, align 8, !tbaa !10
  %34 = load i64, ptr %11, align 8, !tbaa !10
  %35 = load i64, ptr %16, align 8, !tbaa !10
  %36 = icmp ult i64 %34, %35
  br i1 %36, label %40, label %37

37:                                               ; preds = %30
  %38 = load i64, ptr %16, align 8, !tbaa !10
  %39 = icmp eq i64 %38, 0
  br i1 %39, label %40, label %41

40:                                               ; preds = %37, %30
  store i32 -24448, ptr %8, align 4
  store i32 1, ptr %24, align 4
  br label %138

41:                                               ; preds = %37
  %42 = load ptr, ptr %12, align 8, !tbaa !8
  %43 = icmp eq ptr %42, null
  br i1 %43, label %44, label %45

44:                                               ; preds = %41
  store ptr @.str, ptr %12, align 8, !tbaa !8
  store i64 0, ptr %13, align 8, !tbaa !10
  br label %45

45:                                               ; preds = %44, %41
  %46 = load i64, ptr %15, align 8, !tbaa !10
  %47 = load i64, ptr %16, align 8, !tbaa !10
  %48 = udiv i64 %46, %47
  store i64 %48, ptr %18, align 8, !tbaa !10
  %49 = load i64, ptr %15, align 8, !tbaa !10
  %50 = load i64, ptr %16, align 8, !tbaa !10
  %51 = urem i64 %49, %50
  %52 = icmp ne i64 %51, 0
  br i1 %52, label %53, label %56

53:                                               ; preds = %45
  %54 = load i64, ptr %18, align 8, !tbaa !10
  %55 = add i64 %54, 1
  store i64 %55, ptr %18, align 8, !tbaa !10
  br label %56

56:                                               ; preds = %53, %45
  %57 = load i64, ptr %18, align 8, !tbaa !10
  %58 = icmp ugt i64 %57, 255
  br i1 %58, label %59, label %60

59:                                               ; preds = %56
  store i32 -24448, ptr %8, align 4
  store i32 1, ptr %24, align 4
  br label %138

60:                                               ; preds = %56
  call void @mbedtls_md_init(ptr noundef %22)
  %61 = load ptr, ptr %9, align 8, !tbaa !3
  %62 = call i32 @mbedtls_md_setup(ptr noundef %22, ptr noundef %61, i32 noundef 1)
  store i32 %62, ptr %21, align 4, !tbaa !12
  %63 = icmp ne i32 %62, 0
  br i1 %63, label %64, label %65

64:                                               ; preds = %60
  br label %135

65:                                               ; preds = %60
  %66 = getelementptr inbounds [64 x i8], ptr %23, i64 0, i64 0
  %67 = load i64, ptr %16, align 8, !tbaa !10
  call void @llvm.memset.p0.i64(ptr align 16 %66, i8 0, i64 %67, i1 false)
  store i64 1, ptr %20, align 8, !tbaa !10
  br label %68

68:                                               ; preds = %131, %65
  %69 = load i64, ptr %20, align 8, !tbaa !10
  %70 = load i64, ptr %18, align 8, !tbaa !10
  %71 = icmp ule i64 %69, %70
  br i1 %71, label %72, label %134

72:                                               ; preds = %68
  call void @llvm.lifetime.start.p0(i64 8, ptr %25) #5
  call void @llvm.lifetime.start.p0(i64 1, ptr %26) #5
  %73 = load i64, ptr %20, align 8, !tbaa !10
  %74 = and i64 %73, 255
  %75 = trunc i64 %74 to i8
  store i8 %75, ptr %26, align 1, !tbaa !14
  %76 = load ptr, ptr %10, align 8, !tbaa !8
  %77 = load i64, ptr %11, align 8, !tbaa !10
  %78 = call i32 @mbedtls_md_hmac_starts(ptr noundef %22, ptr noundef %76, i64 noundef %77)
  store i32 %78, ptr %21, align 4, !tbaa !12
  %79 = load i32, ptr %21, align 4, !tbaa !12
  %80 = icmp ne i32 %79, 0
  br i1 %80, label %81, label %82

81:                                               ; preds = %72
  store i32 2, ptr %24, align 4
  br label %128

82:                                               ; preds = %72
  %83 = getelementptr inbounds [64 x i8], ptr %23, i64 0, i64 0
  %84 = load i64, ptr %19, align 8, !tbaa !10
  %85 = call i32 @mbedtls_md_hmac_update(ptr noundef %22, ptr noundef %83, i64 noundef %84)
  store i32 %85, ptr %21, align 4, !tbaa !12
  %86 = load i32, ptr %21, align 4, !tbaa !12
  %87 = icmp ne i32 %86, 0
  br i1 %87, label %88, label %89

88:                                               ; preds = %82
  store i32 2, ptr %24, align 4
  br label %128

89:                                               ; preds = %82
  %90 = load ptr, ptr %12, align 8, !tbaa !8
  %91 = load i64, ptr %13, align 8, !tbaa !10
  %92 = call i32 @mbedtls_md_hmac_update(ptr noundef %22, ptr noundef %90, i64 noundef %91)
  store i32 %92, ptr %21, align 4, !tbaa !12
  %93 = load i32, ptr %21, align 4, !tbaa !12
  %94 = icmp ne i32 %93, 0
  br i1 %94, label %95, label %96

95:                                               ; preds = %89
  store i32 2, ptr %24, align 4
  br label %128

96:                                               ; preds = %89
  %97 = call i32 @mbedtls_md_hmac_update(ptr noundef %22, ptr noundef %26, i64 noundef 1)
  store i32 %97, ptr %21, align 4, !tbaa !12
  %98 = load i32, ptr %21, align 4, !tbaa !12
  %99 = icmp ne i32 %98, 0
  br i1 %99, label %100, label %101

100:                                              ; preds = %96
  store i32 2, ptr %24, align 4
  br label %128

101:                                              ; preds = %96
  %102 = getelementptr inbounds [64 x i8], ptr %23, i64 0, i64 0
  %103 = call i32 @mbedtls_md_hmac_finish(ptr noundef %22, ptr noundef %102)
  store i32 %103, ptr %21, align 4, !tbaa !12
  %104 = load i32, ptr %21, align 4, !tbaa !12
  %105 = icmp ne i32 %104, 0
  br i1 %105, label %106, label %107

106:                                              ; preds = %101
  store i32 2, ptr %24, align 4
  br label %128

107:                                              ; preds = %101
  %108 = load i64, ptr %20, align 8, !tbaa !10
  %109 = load i64, ptr %18, align 8, !tbaa !10
  %110 = icmp ne i64 %108, %109
  br i1 %110, label %111, label %113

111:                                              ; preds = %107
  %112 = load i64, ptr %16, align 8, !tbaa !10
  br label %117

113:                                              ; preds = %107
  %114 = load i64, ptr %15, align 8, !tbaa !10
  %115 = load i64, ptr %17, align 8, !tbaa !10
  %116 = sub i64 %114, %115
  br label %117

117:                                              ; preds = %113, %111
  %118 = phi i64 [ %112, %111 ], [ %116, %113 ]
  store i64 %118, ptr %25, align 8, !tbaa !10
  %119 = load ptr, ptr %14, align 8, !tbaa !8
  %120 = load i64, ptr %17, align 8, !tbaa !10
  %121 = getelementptr inbounds nuw i8, ptr %119, i64 %120
  %122 = getelementptr inbounds [64 x i8], ptr %23, i64 0, i64 0
  %123 = load i64, ptr %25, align 8, !tbaa !10
  call void @llvm.memcpy.p0.p0.i64(ptr align 1 %121, ptr align 16 %122, i64 %123, i1 false)
  %124 = load i64, ptr %16, align 8, !tbaa !10
  %125 = load i64, ptr %17, align 8, !tbaa !10
  %126 = add i64 %125, %124
  store i64 %126, ptr %17, align 8, !tbaa !10
  %127 = load i64, ptr %16, align 8, !tbaa !10
  store i64 %127, ptr %19, align 8, !tbaa !10
  store i32 0, ptr %24, align 4
  br label %128

128:                                              ; preds = %106, %100, %95, %88, %81, %117
  call void @llvm.lifetime.end.p0(i64 1, ptr %26) #5
  call void @llvm.lifetime.end.p0(i64 8, ptr %25) #5
  %129 = load i32, ptr %24, align 4
  switch i32 %129, label %138 [
    i32 0, label %130
    i32 2, label %135
  ]

130:                                              ; preds = %128
  br label %131

131:                                              ; preds = %130
  %132 = load i64, ptr %20, align 8, !tbaa !10
  %133 = add i64 %132, 1
  store i64 %133, ptr %20, align 8, !tbaa !10
  br label %68, !llvm.loop !15

134:                                              ; preds = %68
  br label %135

135:                                              ; preds = %134, %128, %64
  call void @mbedtls_md_free(ptr noundef %22)
  %136 = getelementptr inbounds [64 x i8], ptr %23, i64 0, i64 0
  call void @mbedtls_platform_zeroize(ptr noundef %136, i64 noundef 64)
  %137 = load i32, ptr %21, align 4, !tbaa !12
  store i32 %137, ptr %8, align 4
  store i32 1, ptr %24, align 4
  br label %138

138:                                              ; preds = %135, %128, %59, %40, %29
  call void @llvm.lifetime.end.p0(i64 64, ptr %23) #5
  call void @llvm.lifetime.end.p0(i64 24, ptr %22) #5
  call void @llvm.lifetime.end.p0(i64 4, ptr %21) #5
  call void @llvm.lifetime.end.p0(i64 8, ptr %20) #5
  call void @llvm.lifetime.end.p0(i64 8, ptr %19) #5
  call void @llvm.lifetime.end.p0(i64 8, ptr %18) #5
  call void @llvm.lifetime.end.p0(i64 8, ptr %17) #5
  call void @llvm.lifetime.end.p0(i64 8, ptr %16) #5
  %139 = load i32, ptr %8, align 4
  ret i32 %139
}