; Function Attrs: nounwind uwtable
define hidden i32 @mbedtls_hkdf_expand(ptr noundef %0, ptr noundef %1, i64 noundef %2, ptr noundef %3, i64 noundef %4, ptr noundef writeonly %5, i64 noundef %6) local_unnamed_addr #0 {
  %8 = alloca %struct.mbedtls_md_context_t, align 8
  %9 = alloca [64 x i8], align 16
  %10 = alloca i8, align 1
  call void @llvm.lifetime.start.p0(i64 24, ptr nonnull %8) #5
  call void @llvm.lifetime.start.p0(i64 64, ptr nonnull %9) #5
  %11 = icmp eq ptr %5, null
  br i1 %11, label %42, label %12

12:                                               ; preds = %7
  %13 = tail call zeroext i8 @mbedtls_md_get_size(ptr noundef %0) #5
  %14 = zext i8 %13 to i64
  %15 = icmp ult i64 %2, %14
  %16 = icmp eq i8 %13, 0
  %or.cond = or i1 %16, %15
  br i1 %or.cond, label %42, label %17

17:                                               ; preds = %12
  %18 = icmp eq ptr %3, null
  %spec.select = select i1 %18, i64 0, i64 %4
  %spec.select72 = select i1 %18, ptr @.str, ptr %3
  %19 = udiv i64 %6, %14
  %20 = urem i64 %6, %14
  %.not = icmp ne i64 %20, 0
  %21 = zext i1 %.not to i64
  %.047 = add i64 %19, %21
  %22 = icmp ugt i64 %.047, 255
  br i1 %22, label %42, label %23

23:                                               ; preds = %17
  call void @mbedtls_md_init(ptr noundef nonnull %8) #5
  %24 = call i32 @mbedtls_md_setup(ptr noundef nonnull %8, ptr noundef %0, i32 noundef 1) #5
  %.not64 = icmp eq i32 %24, 0
  br i1 %.not64, label %25, label %.loopexit

25:                                               ; preds = %23
  call void @llvm.memset.p0.i64(ptr nonnull align 16 %9, i8 0, i64 %14, i1 false)
  %.not6579 = icmp eq i64 %.047, 0
  br i1 %.not6579, label %.loopexit, label %.lr.ph

.lr.ph:                                           ; preds = %25, %36
  %.04482 = phi i64 [ %41, %36 ], [ 1, %25 ]
  %.04581 = phi i64 [ %14, %36 ], [ 0, %25 ]
  %.04880 = phi i64 [ %40, %36 ], [ 0, %25 ]
  call void @llvm.lifetime.start.p0(i64 1, ptr nonnull %10) #5
  %26 = trunc i64 %.04482 to i8
  store i8 %26, ptr %10, align 1, !tbaa !3
  %27 = call i32 @mbedtls_md_hmac_starts(ptr noundef nonnull %8, ptr noundef %1, i64 noundef %2) #5
  %.not66 = icmp eq i32 %27, 0
  br i1 %.not66, label %28, label %.thread

28:                                               ; preds = %.lr.ph
  %29 = call i32 @mbedtls_md_hmac_update(ptr noundef nonnull %8, ptr noundef nonnull %9, i64 noundef %.04581) #5
  %.not67 = icmp eq i32 %29, 0
  br i1 %.not67, label %30, label %.thread

30:                                               ; preds = %28
  %31 = call i32 @mbedtls_md_hmac_update(ptr noundef nonnull %8, ptr noundef nonnull %spec.select72, i64 noundef %spec.select) #5
  %.not68 = icmp eq i32 %31, 0
  br i1 %.not68, label %32, label %.thread

32:                                               ; preds = %30
  %33 = call i32 @mbedtls_md_hmac_update(ptr noundef nonnull %8, ptr noundef nonnull %10, i64 noundef 1) #5
  %.not69 = icmp eq i32 %33, 0
  br i1 %.not69, label %34, label %.thread

34:                                               ; preds = %32
  %35 = call i32 @mbedtls_md_hmac_finish(ptr noundef nonnull %8, ptr noundef nonnull %9) #5
  %.not70 = icmp eq i32 %35, 0
  br i1 %.not70, label %36, label %.thread

.thread:                                          ; preds = %.lr.ph, %28, %30, %32, %34
  %.2.ph = phi i32 [ %35, %34 ], [ %33, %32 ], [ %31, %30 ], [ %29, %28 ], [ %27, %.lr.ph ]
  call void @llvm.lifetime.end.p0(i64 1, ptr nonnull %10) #5
  br label %.loopexit

36:                                               ; preds = %34
  %.not71 = icmp eq i64 %.04482, %.047
  %37 = sub i64 %6, %.04880
  %38 = select i1 %.not71, i64 %37, i64 %14
  %39 = getelementptr inbounds nuw i8, ptr %5, i64 %.04880
  call void @llvm.memcpy.p0.p0.i64(ptr nonnull align 1 %39, ptr nonnull align 16 %9, i64 %38, i1 false)
  %40 = add i64 %.04880, %14
  call void @llvm.lifetime.end.p0(i64 1, ptr nonnull %10) #5
  %41 = add nuw nsw i64 %.04482, 1
  %.not65.not = icmp ult i64 %.04482, %.047
  br i1 %.not65.not, label %.lr.ph, label %.loopexit, !llvm.loop !6

.loopexit:                                        ; preds = %36, %25, %.thread, %23
  %.043 = phi i32 [ %24, %23 ], [ %.2.ph, %.thread ], [ 0, %25 ], [ 0, %36 ]
  call void @mbedtls_md_free(ptr noundef nonnull %8) #5
  call void @mbedtls_platform_zeroize(ptr noundef nonnull %9, i64 noundef 64) #5
  br label %42

42:                                               ; preds = %17, %12, %7, %.loopexit
  %.0 = phi i32 [ %.043, %.loopexit ], [ -24448, %7 ], [ -24448, %12 ], [ -24448, %17 ]
  call void @llvm.lifetime.end.p0(i64 64, ptr nonnull %9) #5
  call void @llvm.lifetime.end.p0(i64 24, ptr nonnull %8) #5
  ret i32 %.0
}